; Function Attrs: nounwind uwtable
define internal ptr @attrgetter_reduce(ptr noundef readonly captures(none) %0, ptr readnone captures(none) %1) #0 {
  %3 = tail call fastcc ptr @attrgetter_args(ptr noundef %0)
  %4 = icmp eq ptr %3, null
  br i1 %4, label %8, label %5

5:                                                ; preds = %2
  %6 = getelementptr i8, ptr %0, i64 8
  %.val = load ptr, ptr %6, align 8, !tbaa !19
  %7 = tail call ptr (ptr, ...) @Py_BuildValue(ptr noundef nonnull @.str.67, ptr noundef %.val, ptr noundef nonnull %3) #7
  br label %8

8:                                                ; preds = %2, %5
  %.0 = phi ptr [ %7, %5 ], [ null, %2 ]
  ret ptr %.0
}